target datalayout = "e-m:e-p270:32:32-p271:32:32-p272:64:64-i64:64-i128:128-f80:128-n8:16:32:64-S128"
target triple = "x86_64-pc-linux-gnu"

%struct.mbedtls_gcm_context = type { %struct.mbedtls_cipher_context_t, [16 x [2 x i64]], i64, i64, [16 x i8], [16 x i8], [16 x i8], i8, i8 }
%struct.mbedtls_cipher_context_t = type { ptr, i32, i32, ptr, ptr, [16 x i8], i64, [16 x i8], i64, ptr, ptr }

; Function Attrs: alwaysinline nounwind uwtable
define internal void @mbedtls_put_unaligned_uint64(ptr noundef %0, i64 noundef %1) #6 {
  %3 = alloca ptr, align 8
  %4 = alloca i64, align 8
  store ptr %0, ptr %3, align 8, !tbaa !30
  store i64 %1, ptr %4, align 8, !tbaa !14
  %5 = load ptr, ptr %3, align 8, !tbaa !30
  call void @llvm.memcpy.p0.p0.i64(ptr align 1 %5, ptr align 8 %4, i64 8, i1 false)
  ret void
}

; Function Attrs: alwaysinline nounwind uwtable
define internal i64 @mbedtls_get_unaligned_uint64(ptr noundef %0) #6 {
  %2 = alloca ptr, align 8
  %3 = alloca i64, align 8
  store ptr %0, ptr %2, align 8, !tbaa !30
  call void @llvm.lifetime.start.p0(i64 8, ptr %3) #9
  %4 = load ptr, ptr %2, align 8, !tbaa !30
  call void @llvm.memcpy.p0.p0.i64(ptr align 8 %3, ptr align 1 %4, i64 8, i1 false)
  %5 = load i64, ptr %3, align 8, !tbaa !14
  call void @llvm.lifetime.end.p0(i64 8, ptr %3) #9
  ret i64 %5
}

; Function Attrs: alwaysinline nounwind uwtable
define internal void @mbedtls_xor(ptr noundef %0, ptr noundef %1, ptr noundef %2, i64 noundef %3) #6 {
  %5 = alloca ptr, align 8
  %6 = alloca ptr, align 8
  %7 = alloca ptr, align 8
  %8 = alloca i64, align 8
  %9 = alloca i64, align 8
  %10 = alloca i64, align 8
  store ptr %0, ptr %5, align 8, !tbaa !10
  store ptr %1, ptr %6, align 8, !tbaa !10
  store ptr %2, ptr %7, align 8, !tbaa !10
  store i64 %3, ptr %8, align 8, !tbaa !14
  call void @llvm.lifetime.start.p0(i64 8, ptr %9) #9
  store i64 0, ptr %9, align 8, !tbaa !14
  br label %11

11:                                               ; preds = %30, %4
  %12 = load i64, ptr %9, align 8, !tbaa !14
  %13 = add i64 %12, 8
  %14 = load i64, ptr %8, align 8, !tbaa !14
  %15 = icmp ule i64 %13, %14
  br i1 %15, label %16, label %33

16:                                               ; preds = %11
  call void @llvm.lifetime.start.p0(i64 8, ptr %10) #9
  %17 = load ptr, ptr %6, align 8, !tbaa !10
  %18 = load i64, ptr %9, align 8, !tbaa !14
  %19 = getelementptr inbounds nuw i8, ptr %17, i64 %18
  %20 = call i64 @mbedtls_get_unaligned_uint64(ptr noundef %19)
  %21 = load ptr, ptr %7, align 8, !tbaa !10
  %22 = load i64, ptr %9, align 8, !tbaa !14
  %23 = getelementptr inbounds nuw i8, ptr %21, i64 %22
  %24 = call i64 @mbedtls_get_unaligned_uint64(ptr noundef %23)
  %25 = xor i64 %20, %24
  store i64 %25, ptr %10, align 8, !tbaa !14
  %26 = load ptr, ptr %5, align 8, !tbaa !10
  %27 = load i64, ptr %9, align 8, !tbaa !14
  %28 = getelementptr inbounds nuw i8, ptr %26, i64 %27
  %29 = load i64, ptr %10, align 8, !tbaa !14
  call void @mbedtls_put_unaligned_uint64(ptr noundef %28, i64 noundef %29)
  call void @llvm.lifetime.end.p0(i64 8, ptr %10) #9
  br label %30

30:                                               ; preds = %16
  %31 = load i64, ptr %9, align 8, !tbaa !14
  %32 = add i64 %31, 8
  store i64 %32, ptr %9, align 8, !tbaa !14
  br label %11, !llvm.loop !31

33:                                               ; preds = %11
  br label %34

34:                                               ; preds = %54, %33
  %35 = load i64, ptr %9, align 8, !tbaa !14
  %36 = load i64, ptr %8, align 8, !tbaa !14
  %37 = icmp ult i64 %35, %36
  br i1 %37, label %38, label %57

38:                                               ; preds = %34
  %39 = load ptr, ptr %6, align 8, !tbaa !10
  %40 = load i64, ptr %9, align 8, !tbaa !14
  %41 = getelementptr inbounds nuw i8, ptr %39, i64 %40
  %42 = load i8, ptr %41, align 1, !tbaa !28
  %43 = zext i8 %42 to i32
  %44 = load ptr, ptr %7, align 8, !tbaa !10
  %45 = load i64, ptr %9, align 8, !tbaa !14
  %46 = getelementptr inbounds nuw i8, ptr %44, i64 %45
  %47 = load i8, ptr %46, align 1, !tbaa !28
  %48 = zext i8 %47 to i32
  %49 = xor i32 %43, %48
  %50 = trunc i32 %49 to i8
  %51 = load ptr, ptr %5, align 8, !tbaa !10
  %52 = load i64, ptr %9, align 8, !tbaa !14
  %53 = getelementptr inbounds nuw i8, ptr %51, i64 %52
  store i8 %50, ptr %53, align 1, !tbaa !28
  br label %54

54:                                               ; preds = %38
  %55 = load i64, ptr %9, align 8, !tbaa !14
  %56 = add i64 %55, 1
  store i64 %56, ptr %9, align 8, !tbaa !14
  br label %34, !llvm.loop !32

57:                                               ; preds = %34
  call void @llvm.lifetime.end.p0(i64 8, ptr %9) #9
  ret void
}

; Function Attrs: alwaysinline nounwind uwtable
define internal void @mbedtls_put_unaligned_uint32(ptr noundef %0, i32 noundef %1) #6 {
  %3 = alloca ptr, align 8
  %4 = alloca i32, align 4
  store ptr %0, ptr %3, align 8, !tbaa !30
  store i32 %1, ptr %4, align 4, !tbaa !8
  %5 = load ptr, ptr %3, align 8, !tbaa !30
  call void @llvm.memcpy.p0.p0.i64(ptr align 1 %5, ptr align 4 %4, i64 4, i1 false)
  ret void
}

; Function Attrs: nounwind uwtable
define hidden i32 @mbedtls_gcm_finish(ptr noundef %0, ptr noundef %1, i64 noundef %2, ptr noundef %3, ptr noundef %4, i64 noundef %5) #0 {
  %7 = alloca i32, align 4
  %8 = alloca ptr, align 8
  %9 = alloca ptr, align 8
  %10 = alloca i64, align 8
  %11 = alloca ptr, align 8
  %12 = alloca ptr, align 8
  %13 = alloca i64, align 8
  %14 = alloca [16 x i8], align 16
  %15 = alloca i64, align 8
  %16 = alloca i64, align 8
  %17 = alloca i32, align 4
  store ptr %0, ptr %8, align 8, !tbaa !3
  store ptr %1, ptr %9, align 8, !tbaa !10
  store i64 %2, ptr %10, align 8, !tbaa !14
  store ptr %3, ptr %11, align 8, !tbaa !34
  store ptr %4, ptr %12, align 8, !tbaa !10
  store i64 %5, ptr %13, align 8, !tbaa !14
  call void @llvm.lifetime.start.p0(i64 16, ptr %14) #9
  call void @llvm.lifetime.start.p0(i64 8, ptr %15) #9
  call void @llvm.lifetime.start.p0(i64 8, ptr %16) #9
  %18 = load ptr, ptr %11, align 8, !tbaa !34
  store i64 0, ptr %18, align 8, !tbaa !14
  %19 = load ptr, ptr %8, align 8, !tbaa !3
  %20 = getelementptr inbounds nuw %struct.mbedtls_gcm_context, ptr %19, i32 0, i32 2
  %21 = load i64, ptr %20, align 8, !tbaa !26
  %22 = mul i64 %21, 8
  store i64 %22, ptr %15, align 8, !tbaa !14
  %23 = load ptr, ptr %8, align 8, !tbaa !3
  %24 = getelementptr inbounds nuw %struct.mbedtls_gcm_context, ptr %23, i32 0, i32 3
  %25 = load i64, ptr %24, align 8, !tbaa !27
  %26 = mul i64 %25, 8
  store i64 %26, ptr %16, align 8, !tbaa !14
  %27 = load ptr, ptr %8, align 8, !tbaa !3
  %28 = getelementptr inbounds nuw %struct.mbedtls_gcm_context, ptr %27, i32 0, i32 2
  %29 = load i64, ptr %28, align 8, !tbaa !26
  %30 = icmp eq i64 %29, 0
  br i1 %30, label %31, label %45

31:                                               ; preds = %6
  %32 = load ptr, ptr %8, align 8, !tbaa !3
  %33 = getelementptr inbounds nuw %struct.mbedtls_gcm_context, ptr %32, i32 0, i32 3
  %34 = load i64, ptr %33, align 8, !tbaa !27
  %35 = urem i64 %34, 16
  %36 = icmp ne i64 %35, 0
  br i1 %36, label %37, label %45

37:                                               ; preds = %31
  %38 = load ptr, ptr %8, align 8, !tbaa !3
  %39 = load ptr, ptr %8, align 8, !tbaa !3
  %40 = getelementptr inbounds nuw %struct.mbedtls_gcm_context, ptr %39, i32 0, i32 6
  %41 = getelementptr inbounds [16 x i8], ptr %40, i64 0, i64 0
  %42 = load ptr, ptr %8, align 8, !tbaa !3
  %43 = getelementptr inbounds nuw %struct.mbedtls_gcm_context, ptr %42, i32 0, i32 6
  %44 = getelementptr inbounds [16 x i8], ptr %43, i64 0, i64 0
  call void @gcm_mult(ptr noundef %38, ptr noundef %41, ptr noundef %44)
  br label %45

45:                                               ; preds = %37, %31, %6
  %46 = load i64, ptr %13, align 8, !tbaa !14
  %47 = icmp ugt i64 %46, 16
  br i1 %47, label %51, label %48

48:                                               ; preds = %45
  %49 = load i64, ptr %13, align 8, !tbaa !14
  %50 = icmp ult i64 %49, 4
  br i1 %50, label %51, label %52

51:                                               ; preds = %48, %45
  store i32 -20, ptr %7, align 4
  store i32 1, ptr %17, align 4
  br label %122

52:                                               ; preds = %48
  %53 = load ptr, ptr %8, align 8, !tbaa !3
  %54 = getelementptr inbounds nuw %struct.mbedtls_gcm_context, ptr %53, i32 0, i32 2
  %55 = load i64, ptr %54, align 8, !tbaa !26
  %56 = urem i64 %55, 16
  %57 = icmp ne i64 %56, 0
  br i1 %57, label %58, label %66

58:                                               ; preds = %52
  %59 = load ptr, ptr %8, align 8, !tbaa !3
  %60 = load ptr, ptr %8, align 8, !tbaa !3
  %61 = getelementptr inbounds nuw %struct.mbedtls_gcm_context, ptr %60, i32 0, i32 6
  %62 = getelementptr inbounds [16 x i8], ptr %61, i64 0, i64 0
  %63 = load ptr, ptr %8, align 8, !tbaa !3
  %64 = getelementptr inbounds nuw %struct.mbedtls_gcm_context, ptr %63, i32 0, i32 6
  %65 = getelementptr inbounds [16 x i8], ptr %64, i64 0, i64 0
  call void @gcm_mult(ptr noundef %59, ptr noundef %62, ptr noundef %65)
  br label %66

66:                                               ; preds = %58, %52
  %67 = load ptr, ptr %12, align 8, !tbaa !10
  %68 = load ptr, ptr %8, align 8, !tbaa !3
  %69 = getelementptr inbounds nuw %struct.mbedtls_gcm_context, ptr %68, i32 0, i32 4
  %70 = getelementptr inbounds [16 x i8], ptr %69, i64 0, i64 0
  %71 = load i64, ptr %13, align 8, !tbaa !14
  call void @llvm.memcpy.p0.p0.i64(ptr align 1 %67, ptr align 8 %70, i64 %71, i1 false)
  %72 = load i64, ptr %15, align 8, !tbaa !14
  %73 = icmp ne i64 %72, 0
  br i1 %73, label %77, label %74

74:                                               ; preds = %66
  %75 = load i64, ptr %16, align 8, !tbaa !14
  %76 = icmp ne i64 %75, 0
  br i1 %76, label %77, label %121

77:                                               ; preds = %74, %66
  %78 = getelementptr inbounds [16 x i8], ptr %14, i64 0, i64 0
  call void @llvm.memset.p0.i64(ptr align 16 %78, i8 0, i64 16, i1 false)
  %79 = getelementptr inbounds [16 x i8], ptr %14, i64 0, i64 0
  %80 = getelementptr inbounds i8, ptr %79, i64 0
  %81 = load i64, ptr %16, align 8, !tbaa !14
  %82 = lshr i64 %81, 32
  %83 = trunc i64 %82 to i32
  %84 = call i32 @llvm.bswap.i32(i32 %83)
  call void @mbedtls_put_unaligned_uint32(ptr noundef %80, i32 noundef %84)
  %85 = getelementptr inbounds [16 x i8], ptr %14, i64 0, i64 0
  %86 = getelementptr inbounds i8, ptr %85, i64 4
  %87 = load i64, ptr %16, align 8, !tbaa !14
  %88 = trunc i64 %87 to i32
  %89 = call i32 @llvm.bswap.i32(i32 %88)
  call void @mbedtls_put_unaligned_uint32(ptr noundef %86, i32 noundef %89)
  %90 = getelementptr inbounds [16 x i8], ptr %14, i64 0, i64 0
  %91 = getelementptr inbounds i8, ptr %90, i64 8
  %92 = load i64, ptr %15, align 8, !tbaa !14
  %93 = lshr i64 %92, 32
  %94 = trunc i64 %93 to i32
  %95 = call i32 @llvm.bswap.i32(i32 %94)
  call void @mbedtls_put_unaligned_uint32(ptr noundef %91, i32 noundef %95)
  %96 = getelementptr inbounds [16 x i8], ptr %14, i64 0, i64 0
  %97 = getelementptr inbounds i8, ptr %96, i64 12
  %98 = load i64, ptr %15, align 8, !tbaa !14
  %99 = trunc i64 %98 to i32
  %100 = call i32 @llvm.bswap.i32(i32 %99)
  call void @mbedtls_put_unaligned_uint32(ptr noundef %97, i32 noundef %100)
  %101 = load ptr, ptr %8, align 8, !tbaa !3
  %102 = getelementptr inbounds nuw %struct.mbedtls_gcm_context, ptr %101, i32 0, i32 6
  %103 = getelementptr inbounds [16 x i8], ptr %102, i64 0, i64 0
  %104 = load ptr, ptr %8, align 8, !tbaa !3
  %105 = getelementptr inbounds nuw %struct.mbedtls_gcm_context, ptr %104, i32 0, i32 6
  %106 = getelementptr inbounds [16 x i8], ptr %105, i64 0, i64 0
  %107 = getelementptr inbounds [16 x i8], ptr %14, i64 0, i64 0
  call void @mbedtls_xor(ptr noundef %103, ptr noundef %106, ptr noundef %107, i64 noundef 16)
  %108 = load ptr, ptr %8, align 8, !tbaa !3
  %109 = load ptr, ptr %8, align 8, !tbaa !3
  %110 = getelementptr inbounds nuw %struct.mbedtls_gcm_context, ptr %109, i32 0, i32 6
  %111 = getelementptr inbounds [16 x i8], ptr %110, i64 0, i64 0
  %112 = load ptr, ptr %8, align 8, !tbaa !3
  %113 = getelementptr inbounds nuw %struct.mbedtls_gcm_context, ptr %112, i32 0, i32 6
  %114 = getelementptr inbounds [16 x i8], ptr %113, i64 0, i64 0
  call void @gcm_mult(ptr noundef %108, ptr noundef %111, ptr noundef %114)
  %115 = load ptr, ptr %12, align 8, !tbaa !10
  %116 = load ptr, ptr %12, align 8, !tbaa !10
  %117 = load ptr, ptr %8, align 8, !tbaa !3
  %118 = getelementptr inbounds nuw %struct.mbedtls_gcm_context, ptr %117, i32 0, i32 6
  %119 = getelementptr inbounds [16 x i8], ptr %118, i64 0, i64 0
  %120 = load i64, ptr %13, align 8, !tbaa !14
  call void @mbedtls_xor(ptr noundef %115, ptr noundef %116, ptr noundef %119, i64 noundef %120)
  br label %121

121:                                              ; preds = %77, %74
  store i32 0, ptr %7, align 4
  store i32 1, ptr %17, align 4
  br label %122

122:                                              ; preds = %121, %51
  call void @llvm.lifetime.end.p0(i64 8, ptr %16) #9
  call void @llvm.lifetime.end.p0(i64 8, ptr %15) #9
  call void @llvm.lifetime.end.p0(i64 16, ptr %14) #9
  %123 = load i32, ptr %7, align 4
  ret i32 %123
}