; Function Attrs: nounwind uwtable
define hidden range(i32 -20, 1) i32 @mbedtls_gcm_finish(ptr noundef %0, ptr readnone captures(none) %1, i64 %2, ptr noundef writeonly captures(none) initializes((0, 8)) %3, ptr noundef captures(none) %4, i64 noundef %5) local_unnamed_addr #2 {
  store i64 0, ptr %3, align 8, !tbaa !3
  %7 = getelementptr inbounds nuw i8, ptr %0, i64 352
  %8 = load i64, ptr %7, align 8, !tbaa !29
  %9 = shl i64 %8, 3
  %10 = getelementptr inbounds nuw i8, ptr %0, i64 360
  %11 = load i64, ptr %10, align 8, !tbaa !27
  %12 = shl i64 %11, 3
  %13 = icmp ne i64 %8, 0
  %14 = and i64 %11, 15
  %.not = icmp eq i64 %14, 0
  %or.cond37 = select i1 %13, i1 true, i1 %.not
  br i1 %or.cond37, label %17, label %15

15:                                               ; preds = %6
  %16 = getelementptr inbounds nuw i8, ptr %0, i64 400
  tail call fastcc void @gcm_mult(ptr noundef nonnull %0, ptr noundef nonnull %16, ptr noundef nonnull %16)
  br label %17

17:                                               ; preds = %15, %6
  %18 = add i64 %5, -17
  %or.cond = icmp ult i64 %18, -13
  br i1 %or.cond, label %mbedtls_xor.exit, label %19

19:                                               ; preds = %17
  %20 = load i64, ptr %7, align 8, !tbaa !29
  %21 = and i64 %20, 15
  %.not36 = icmp eq i64 %21, 0
  br i1 %.not36, label %24, label %22

22:                                               ; preds = %19
  %23 = getelementptr inbounds nuw i8, ptr %0, i64 400
  tail call fastcc void @gcm_mult(ptr noundef nonnull %0, ptr noundef nonnull %23, ptr noundef nonnull %23)
  br label %24

24:                                               ; preds = %22, %19
  %25 = getelementptr inbounds nuw i8, ptr %0, i64 368
  tail call void @llvm.memcpy.p0.p0.i64(ptr align 1 %4, ptr nonnull align 8 %25, i64 %5, i1 false)
  %26 = icmp ne i64 %9, 0
  %27 = icmp ne i64 %12, 0
  %or.cond3 = select i1 %26, i1 true, i1 %27
  br i1 %or.cond3, label %mbedtls_xor.exit41.critedge, label %mbedtls_xor.exit

mbedtls_xor.exit41.critedge:                      ; preds = %24
  %.sroa.0.4.insert.insert = tail call i64 @llvm.bswap.i64(i64 %12)
  %.sroa.5.12.insert.insert = tail call i64 @llvm.bswap.i64(i64 %9)
  %28 = getelementptr inbounds nuw i8, ptr %0, i64 400
  %.0.copyload.i42 = load i64, ptr %28, align 1
  %29 = xor i64 %.sroa.0.4.insert.insert, %.0.copyload.i42
  store i64 %29, ptr %28, align 1
  %30 = getelementptr inbounds nuw i8, ptr %0, i64 408
  %.0.copyload.i42.c = load i64, ptr %30, align 1
  %31 = xor i64 %.sroa.5.12.insert.insert, %.0.copyload.i42.c
  store i64 %31, ptr %30, align 1
  tail call fastcc void @gcm_mult(ptr noundef nonnull %0, ptr noundef nonnull %28, ptr noundef nonnull %28)
  %.not.i48 = icmp samesign ult i64 %5, 8
  br i1 %.not.i48, label %.preheader, label %.lr.ph50

.preheader:                                       ; preds = %.lr.ph50, %mbedtls_xor.exit41.critedge
  %.0.i.lcssa = phi i64 [ 0, %mbedtls_xor.exit41.critedge ], [ %33, %.lr.ph50 ]
  %32 = icmp samesign ult i64 %.0.i.lcssa, %5
  br i1 %32, label %.lr.ph52, label %mbedtls_xor.exit

.lr.ph50:                                         ; preds = %mbedtls_xor.exit41.critedge, %.lr.ph50
  %33 = phi i64 [ %37, %.lr.ph50 ], [ 8, %mbedtls_xor.exit41.critedge ]
  %.0.i49 = phi i64 [ %33, %.lr.ph50 ], [ 0, %mbedtls_xor.exit41.critedge ]
  %34 = getelementptr inbounds nuw i8, ptr %4, i64 %.0.i49
  %.0.copyload.i44 = load i64, ptr %34, align 1
  %35 = getelementptr inbounds nuw i8, ptr %28, i64 %.0.i49
  %.0.copyload.i43 = load i64, ptr %35, align 1
  %36 = xor i64 %.0.copyload.i43, %.0.copyload.i44
  store i64 %36, ptr %34, align 1
  %37 = add nuw nsw i64 %33, 8
  %.not.i = icmp ugt i64 %37, %5
  br i1 %.not.i, label %.preheader, label %.lr.ph50, !llvm.loop !21

.lr.ph52:                                         ; preds = %.preheader, %.lr.ph52
  %.1.i51 = phi i64 [ %43, %.lr.ph52 ], [ %.0.i.lcssa, %.preheader ]
  %38 = getelementptr inbounds nuw i8, ptr %4, i64 %.1.i51
  %39 = load i8, ptr %38, align 1, !tbaa !14
  %40 = getelementptr inbounds nuw i8, ptr %28, i64 %.1.i51
  %41 = load i8, ptr %40, align 1, !tbaa !14
  %42 = xor i8 %41, %39
  store i8 %42, ptr %38, align 1, !tbaa !14
  %43 = add nuw i64 %.1.i51, 1
  %exitcond.not = icmp eq i64 %43, %5
  br i1 %exitcond.not, label %mbedtls_xor.exit, label %.lr.ph52, !llvm.loop !22

mbedtls_xor.exit:                                 ; preds = %.lr.ph52, %.preheader, %24, %17
  %.0 = phi i32 [ -20, %17 ], [ 0, %24 ], [ 0, %.preheader ], [ 0, %.lr.ph52 ]
  ret i32 %.0
}